; Function Attrs: mustprogress nounwind uwtable
define noundef nonnull align 8 dereferenceable(32) ptr @_ZNK5boost15program_options18option_description3keyERKNSt7__cxx1112basic_stringIcSt11char_traitsIcESaIcEEE(ptr noundef nonnull readonly align 8 dereferenceable(112) %0, ptr noundef nonnull readnone align 8 dereferenceable(32) %1) local_unnamed_addr #3 align 2 {
  %3 = getelementptr inbounds nuw i8, ptr %0, i64 40
  %4 = load ptr, ptr %3, align 8, !tbaa !37
  %5 = getelementptr inbounds nuw i8, ptr %0, i64 48
  %6 = load ptr, ptr %5, align 8, !tbaa !37
  %7 = icmp eq ptr %4, %6
  br i1 %7, label %10, label %8

8:                                                ; preds = %2
  %9 = tail call noundef i64 @_ZNKSt7__cxx1112basic_stringIcSt11char_traitsIcESaIcEE4findEcm(ptr noundef nonnull align 8 dereferenceable(32) %4, i8 noundef signext 42, i64 noundef 0) #30
  %.not = icmp eq i64 %9, -1
  %. = select i1 %.not, ptr %4, ptr %1
  br label %12

10:                                               ; preds = %2
  %11 = getelementptr inbounds nuw i8, ptr %0, i64 8
  br label %12

12:                                               ; preds = %10, %8
  %.1 = phi ptr [ %11, %10 ], [ %., %8 ]
  ret ptr %.1
}